target datalayout = "e-m:e-p270:32:32-p271:32:32-p272:64:64-i64:64-i128:128-f80:128-n8:16:32:64-S128"
target triple = "x86_64-pc-linux-gnu"

%struct.Vec_Ptr_t_ = type { i32, i32, ptr }
%struct.Vec_Int_t_ = type { i32, i32, ptr }

@.str = private unnamed_addr constant [13 x i8] c"Class %5d : \00", align 1
@.str.1 = private unnamed_addr constant [13 x i8] c"Num =%5d    \00", align 1
@.str.2 = private unnamed_addr constant [9 x i8] c"%5d%c%d \00", align 1
@.str.3 = private unnamed_addr constant [2 x i8] c"\0A\00", align 1

; Function Attrs: nounwind uwtable
define i32 @Abc_ObjEquivId2NtkId(i32 noundef %0) #0 {
  %2 = alloca i32, align 4
  store i32 %0, ptr %2, align 4
  %3 = load i32, ptr %2, align 4
  %4 = and i32 %3, 1
  ret i32 %4
}

; Function Attrs: nounwind uwtable
define i32 @Abc_ObjEquivId2Polar(i32 noundef %0) #0 {
  %2 = alloca i32, align 4
  store i32 %0, ptr %2, align 4
  %3 = load i32, ptr %2, align 4
  %4 = ashr i32 %3, 1
  %5 = and i32 %4, 1
  ret i32 %5
}

; Function Attrs: nounwind uwtable
define i32 @Abc_ObjEquivId2ObjId(i32 noundef %0) #0 {
  %2 = alloca i32, align 4
  store i32 %0, ptr %2, align 4
  %3 = load i32, ptr %2, align 4
  %4 = ashr i32 %3, 2
  ret i32 %4
}

; Function Attrs: nounwind uwtable
define internal i32 @Vec_IntEntry(ptr noundef %0, i32 noundef %1) #0 {
  %3 = alloca ptr, align 8
  %4 = alloca i32, align 4
  store ptr %0, ptr %3, align 8
  store i32 %1, ptr %4, align 4
  %5 = load ptr, ptr %3, align 8
  %6 = getelementptr inbounds %struct.Vec_Int_t_, ptr %5, i32 0, i32 2
  %7 = load ptr, ptr %6, align 8
  %8 = load i32, ptr %4, align 4
  %9 = sext i32 %8 to i64
  %10 = getelementptr inbounds i32, ptr %7, i64 %9
  %11 = load i32, ptr %10, align 4
  ret i32 %11
}

; Function Attrs: nounwind uwtable
define internal i32 @Vec_IntSize(ptr noundef %0) #0 {
  %2 = alloca ptr, align 8
  store ptr %0, ptr %2, align 8
  %3 = load ptr, ptr %2, align 8
  %4 = getelementptr inbounds %struct.Vec_Int_t_, ptr %3, i32 0, i32 1
  %5 = load i32, ptr %4, align 4
  ret i32 %5
}

; Function Attrs: nounwind uwtable
define internal ptr @Vec_PtrEntry(ptr noundef %0, i32 noundef %1) #0 {
  %3 = alloca ptr, align 8
  %4 = alloca i32, align 4
  store ptr %0, ptr %3, align 8
  store i32 %1, ptr %4, align 4
  %5 = load ptr, ptr %3, align 8
  %6 = getelementptr inbounds %struct.Vec_Ptr_t_, ptr %5, i32 0, i32 2
  %7 = load ptr, ptr %6, align 8
  %8 = load i32, ptr %4, align 4
  %9 = sext i32 %8 to i64
  %10 = getelementptr inbounds ptr, ptr %7, i64 %9
  %11 = load ptr, ptr %10, align 8
  ret ptr %11
}

; Function Attrs: nounwind uwtable
define internal i32 @Vec_PtrSize(ptr noundef %0) #0 {
  %2 = alloca ptr, align 8
  store ptr %0, ptr %2, align 8
  %3 = load ptr, ptr %2, align 8
  %4 = getelementptr inbounds %struct.Vec_Ptr_t_, ptr %3, i32 0, i32 1
  %5 = load i32, ptr %4, align 4
  ret i32 %5
}

; Function Attrs: nounwind uwtable
define void @Abc_NtkDressPrintEquivs(ptr noundef %0) #0 {
  %2 = alloca ptr, align 8
  %3 = alloca ptr, align 8
  %4 = alloca i32, align 4
  %5 = alloca i32, align 4
  %6 = alloca i32, align 4
  store ptr %0, ptr %2, align 8
  store i32 0, ptr %4, align 4
  br label %7

7:                                                ; preds = %50, %1
  %8 = load i32, ptr %4, align 4
  %9 = load ptr, ptr %2, align 8
  %10 = call i32 @Vec_PtrSize(ptr noundef %9)
  %11 = icmp slt i32 %8, %10
  br i1 %11, label %12, label %16

12:                                               ; preds = %7
  %13 = load ptr, ptr %2, align 8
  %14 = load i32, ptr %4, align 4
  %15 = call ptr @Vec_PtrEntry(ptr noundef %13, i32 noundef %14)
  store ptr %15, ptr %3, align 8
  br label %16

16:                                               ; preds = %12, %7
  %17 = phi i1 [ false, %7 ], [ true, %12 ]
  br i1 %17, label %18, label %53

18:                                               ; preds = %16
  %19 = load i32, ptr %4, align 4
  %20 = call i32 (ptr, ...) @printf(ptr noundef @.str, i32 noundef %19)
  %21 = load ptr, ptr %3, align 8
  %22 = call i32 @Vec_IntSize(ptr noundef %21)
  %23 = call i32 (ptr, ...) @printf(ptr noundef @.str.1, i32 noundef %22)
  store i32 0, ptr %5, align 4
  br label %24

24:                                               ; preds = %45, %18
  %25 = load i32, ptr %5, align 4
  %26 = load ptr, ptr %3, align 8
  %27 = call i32 @Vec_IntSize(ptr noundef %26)
  %28 = icmp slt i32 %25, %27
  br i1 %28, label %29, label %33

29:                                               ; preds = %24
  %30 = load ptr, ptr %3, align 8
  %31 = load i32, ptr %5, align 4
  %32 = call i32 @Vec_IntEntry(ptr noundef %30, i32 noundef %31)
  store i32 %32, ptr %6, align 4
  br label %33

33:                                               ; preds = %29, %24
  %34 = phi i1 [ false, %24 ], [ true, %29 ]
  br i1 %34, label %35, label %48

35:                                               ; preds = %33
  %36 = load i32, ptr %6, align 4
  %37 = call i32 @Abc_ObjEquivId2ObjId(i32 noundef %36)
  %38 = load i32, ptr %6, align 4
  %39 = call i32 @Abc_ObjEquivId2Polar(i32 noundef %38)
  %40 = icmp ne i32 %39, 0
  %41 = select i1 %40, i32 45, i32 43
  %42 = load i32, ptr %6, align 4
  %43 = call i32 @Abc_ObjEquivId2NtkId(i32 noundef %42)
  %44 = call i32 (ptr, ...) @printf(ptr noundef @.str.2, i32 noundef %37, i32 noundef %41, i32 noundef %43)
  br label %45

45:                                               ; preds = %35
  %46 = load i32, ptr %5, align 4
  %47 = add nsw i32 %46, 1
  store i32 %47, ptr %5, align 4
  br label %24, !llvm.loop !21

48:                                               ; preds = %33
  %49 = call i32 (ptr, ...) @printf(ptr noundef @.str.3)
  br label %50

50:                                               ; preds = %48
  %51 = load i32, ptr %4, align 4
  %52 = add nsw i32 %51, 1
  store i32 %52, ptr %4, align 4
  br label %7, !llvm.loop !22

53:                                               ; preds = %16
  ret void
}