; Function Attrs: nofree nounwind uwtable
define void @Abc_NtkDressPrintEquivs(ptr noundef readonly captures(none) %0) local_unnamed_addr #9 {
  %2 = getelementptr i8, ptr %0, i64 4
  %.val23 = load i32, ptr %2, align 4
  %3 = icmp sgt i32 %.val23, 0
  br i1 %3, label %.lr.ph25, label %.critedge

.lr.ph25:                                         ; preds = %1
  %4 = getelementptr i8, ptr %0, i64 8
  br label %5

5:                                                ; preds = %.lr.ph25, %.critedge2
  %indvars.iv27 = phi i64 [ 0, %.lr.ph25 ], [ %indvars.iv.next28, %.critedge2 ]
  %.val17 = load ptr, ptr %4, align 8
  %6 = getelementptr inbounds nuw ptr, ptr %.val17, i64 %indvars.iv27
  %7 = load ptr, ptr %6, align 8
  %8 = trunc nuw nsw i64 %indvars.iv27 to i32
  %9 = tail call i32 (ptr, ...) @printf(ptr noundef nonnull dereferenceable(1) @.str, i32 noundef %8)
  %10 = getelementptr i8, ptr %7, i64 4
  %.val20 = load i32, ptr %10, align 4
  %11 = tail call i32 (ptr, ...) @printf(ptr noundef nonnull dereferenceable(1) @.str.1, i32 noundef %.val20)
  %.val1921 = load i32, ptr %10, align 4
  %12 = icmp sgt i32 %.val1921, 0
  br i1 %12, label %.lr.ph, label %.critedge2

.lr.ph:                                           ; preds = %5
  %13 = getelementptr i8, ptr %7, i64 8
  br label %14

14:                                               ; preds = %.lr.ph, %14
  %indvars.iv = phi i64 [ 0, %.lr.ph ], [ %indvars.iv.next, %14 ]
  %.val18 = load ptr, ptr %13, align 8
  %15 = getelementptr inbounds nuw i32, ptr %.val18, i64 %indvars.iv
  %16 = load i32, ptr %15, align 4
  %17 = ashr i32 %16, 2
  %18 = and i32 %16, 2
  %19 = add nuw nsw i32 %18, 43
  %20 = and i32 %16, 1
  %21 = tail call i32 (ptr, ...) @printf(ptr noundef nonnull dereferenceable(1) @.str.2, i32 noundef %17, i32 noundef %19, i32 noundef %20)
  %indvars.iv.next = add nuw nsw i64 %indvars.iv, 1
  %.val19 = load i32, ptr %10, align 4
  %22 = sext i32 %.val19 to i64
  %23 = icmp slt i64 %indvars.iv.next, %22
  br i1 %23, label %14, label %.critedge2, !llvm.loop !20

.critedge2:                                       ; preds = %14, %5
  %putchar = tail call i32 @putchar(i32 10)
  %indvars.iv.next28 = add nuw nsw i64 %indvars.iv27, 1
  %.val = load i32, ptr %2, align 4
  %24 = sext i32 %.val to i64
  %25 = icmp slt i64 %indvars.iv.next28, %24
  br i1 %25, label %5, label %.critedge, !llvm.loop !21

.critedge:                                        ; preds = %.critedge2, %1
  ret void
}